target datalayout = "e-m:e-p270:32:32-p271:32:32-p272:64:64-i64:64-i128:128-f80:128-n8:16:32:64-S128"
target triple = "x86_64-pc-linux-gnu"

%struct.UriMemoryManagerStruct = type { ptr, ptr, ptr, ptr, ptr, ptr }
%struct.UriParserStateStructW = type { ptr, i32, ptr, ptr }
%struct.UriUriStructW = type { %struct.UriTextRangeStructW, %struct.UriTextRangeStructW, %struct.UriTextRangeStructW, %struct.UriHostDataStructW, %struct.UriTextRangeStructW, ptr, ptr, %struct.UriTextRangeStructW, %struct.UriTextRangeStructW, i32, i32, ptr }
%struct.UriHostDataStructW = type { ptr, ptr, %struct.UriTextRangeStructW }
%struct.UriTextRangeStructW = type { ptr, ptr }
%struct.UriPathSegmentStructW = type { %struct.UriTextRangeStructW, ptr, ptr }

@uriSafeToPointToW = external constant ptr, align 8

; Function Attrs: nounwind uwtable
define internal ptr @uriParseZeroMoreSlashSegsW(ptr noundef %0, ptr noundef %1, ptr noundef %2, ptr noundef %3) #0 {
  %5 = alloca ptr, align 8
  %6 = alloca ptr, align 8
  %7 = alloca ptr, align 8
  %8 = alloca ptr, align 8
  %9 = alloca ptr, align 8
  %10 = alloca ptr, align 8
  %11 = alloca i32, align 4
  store ptr %0, ptr %6, align 8, !tbaa !59
  store ptr %1, ptr %7, align 8, !tbaa !61
  store ptr %2, ptr %8, align 8, !tbaa !61
  store ptr %3, ptr %9, align 8, !tbaa !10
  %12 = load ptr, ptr %7, align 8, !tbaa !61
  %13 = load ptr, ptr %8, align 8, !tbaa !61
  %14 = icmp uge ptr %12, %13
  br i1 %14, label %15, label %17

15:                                               ; preds = %4
  %16 = load ptr, ptr %8, align 8, !tbaa !61
  store ptr %16, ptr %5, align 8
  br label %50

17:                                               ; preds = %4
  %18 = load ptr, ptr %7, align 8, !tbaa !61
  %19 = load i32, ptr %18, align 4, !tbaa !21
  switch i32 %19, label %48 [
    i32 47, label %20
  ]

20:                                               ; preds = %17
  call void @llvm.lifetime.start.p0(i64 8, ptr %10) #7
  %21 = load ptr, ptr %6, align 8, !tbaa !59
  %22 = load ptr, ptr %7, align 8, !tbaa !61
  %23 = getelementptr inbounds i32, ptr %22, i64 1
  %24 = load ptr, ptr %8, align 8, !tbaa !61
  %25 = load ptr, ptr %9, align 8, !tbaa !10
  %26 = call ptr @uriParseSegmentW(ptr noundef %21, ptr noundef %23, ptr noundef %24, ptr noundef %25)
  store ptr %26, ptr %10, align 8, !tbaa !61
  %27 = load ptr, ptr %10, align 8, !tbaa !61
  %28 = icmp eq ptr %27, null
  br i1 %28, label %29, label %30

29:                                               ; preds = %20
  store ptr null, ptr %5, align 8
  store i32 1, ptr %11, align 4
  br label %47

30:                                               ; preds = %20
  %31 = load ptr, ptr %6, align 8, !tbaa !59
  %32 = load ptr, ptr %7, align 8, !tbaa !61
  %33 = getelementptr inbounds i32, ptr %32, i64 1
  %34 = load ptr, ptr %10, align 8, !tbaa !61
  %35 = load ptr, ptr %9, align 8, !tbaa !10
  %36 = call i32 @uriPushPathSegmentW(ptr noundef %31, ptr noundef %33, ptr noundef %34, ptr noundef %35)
  %37 = icmp ne i32 %36, 0
  br i1 %37, label %41, label %38

38:                                               ; preds = %30
  %39 = load ptr, ptr %6, align 8, !tbaa !59
  %40 = load ptr, ptr %9, align 8, !tbaa !10
  call void @uriStopMallocW(ptr noundef %39, ptr noundef %40)
  store ptr null, ptr %5, align 8
  store i32 1, ptr %11, align 4
  br label %47

41:                                               ; preds = %30
  %42 = load ptr, ptr %6, align 8, !tbaa !59
  %43 = load ptr, ptr %10, align 8, !tbaa !61
  %44 = load ptr, ptr %8, align 8, !tbaa !61
  %45 = load ptr, ptr %9, align 8, !tbaa !10
  %46 = call ptr @uriParseZeroMoreSlashSegsW(ptr noundef %42, ptr noundef %43, ptr noundef %44, ptr noundef %45)
  store ptr %46, ptr %5, align 8
  store i32 1, ptr %11, align 4
  br label %47

47:                                               ; preds = %41, %38, %29
  call void @llvm.lifetime.end.p0(i64 8, ptr %10) #7
  br label %50

48:                                               ; preds = %17
  %49 = load ptr, ptr %7, align 8, !tbaa !61
  store ptr %49, ptr %5, align 8
  br label %50

50:                                               ; preds = %48, %47, %15
  %51 = load ptr, ptr %5, align 8
  ret ptr %51
}

; Function Attrs: inlinehint nounwind uwtable
define internal void @uriStopMallocW(ptr noundef %0, ptr noundef %1) #4 {
  %3 = alloca ptr, align 8
  %4 = alloca ptr, align 8
  store ptr %0, ptr %3, align 8, !tbaa !59
  store ptr %1, ptr %4, align 8, !tbaa !10
  %5 = load ptr, ptr %3, align 8, !tbaa !59
  %6 = getelementptr inbounds nuw %struct.UriParserStateStructW, ptr %5, i32 0, i32 0
  %7 = load ptr, ptr %6, align 8, !tbaa !63
  %8 = load ptr, ptr %4, align 8, !tbaa !10
  %9 = call i32 @uriFreeUriMembersMmW(ptr noundef %7, ptr noundef %8)
  %10 = load ptr, ptr %3, align 8, !tbaa !59
  %11 = getelementptr inbounds nuw %struct.UriParserStateStructW, ptr %10, i32 0, i32 2
  store ptr null, ptr %11, align 8, !tbaa !67
  %12 = load ptr, ptr %3, align 8, !tbaa !59
  %13 = getelementptr inbounds nuw %struct.UriParserStateStructW, ptr %12, i32 0, i32 1
  store i32 3, ptr %13, align 8, !tbaa !68
  ret void
}

; Function Attrs: inlinehint nounwind uwtable
define internal i32 @uriPushPathSegmentW(ptr noundef %0, ptr noundef %1, ptr noundef %2, ptr noundef %3) #4 {
  %5 = alloca i32, align 4
  %6 = alloca ptr, align 8
  %7 = alloca ptr, align 8
  %8 = alloca ptr, align 8
  %9 = alloca ptr, align 8
  %10 = alloca ptr, align 8
  %11 = alloca i32, align 4
  store ptr %0, ptr %6, align 8, !tbaa !59
  store ptr %1, ptr %7, align 8, !tbaa !61
  store ptr %2, ptr %8, align 8, !tbaa !61
  store ptr %3, ptr %9, align 8, !tbaa !10
  call void @llvm.lifetime.start.p0(i64 8, ptr %10) #7
  %12 = load ptr, ptr %9, align 8, !tbaa !10
  %13 = getelementptr inbounds nuw %struct.UriMemoryManagerStruct, ptr %12, i32 0, i32 1
  %14 = load ptr, ptr %13, align 8, !tbaa !101
  %15 = load ptr, ptr %9, align 8, !tbaa !10
  %16 = call ptr %14(ptr noundef %15, i64 noundef 1, i64 noundef 32)
  store ptr %16, ptr %10, align 8, !tbaa !89
  %17 = load ptr, ptr %10, align 8, !tbaa !89
  %18 = icmp eq ptr %17, null
  br i1 %18, label %19, label %20

19:                                               ; preds = %4
  store i32 0, ptr %5, align 4
  store i32 1, ptr %11, align 4
  br label %74

20:                                               ; preds = %4
  %21 = load ptr, ptr %7, align 8, !tbaa !61
  %22 = load ptr, ptr %8, align 8, !tbaa !61
  %23 = icmp eq ptr %21, %22
  br i1 %23, label %24, label %33

24:                                               ; preds = %20
  %25 = load ptr, ptr @uriSafeToPointToW, align 8, !tbaa !61
  %26 = load ptr, ptr %10, align 8, !tbaa !89
  %27 = getelementptr inbounds nuw %struct.UriPathSegmentStructW, ptr %26, i32 0, i32 0
  %28 = getelementptr inbounds nuw %struct.UriTextRangeStructW, ptr %27, i32 0, i32 0
  store ptr %25, ptr %28, align 8, !tbaa !92
  %29 = load ptr, ptr @uriSafeToPointToW, align 8, !tbaa !61
  %30 = load ptr, ptr %10, align 8, !tbaa !89
  %31 = getelementptr inbounds nuw %struct.UriPathSegmentStructW, ptr %30, i32 0, i32 0
  %32 = getelementptr inbounds nuw %struct.UriTextRangeStructW, ptr %31, i32 0, i32 1
  store ptr %29, ptr %32, align 8, !tbaa !93
  br label %42

33:                                               ; preds = %20
  %34 = load ptr, ptr %7, align 8, !tbaa !61
  %35 = load ptr, ptr %10, align 8, !tbaa !89
  %36 = getelementptr inbounds nuw %struct.UriPathSegmentStructW, ptr %35, i32 0, i32 0
  %37 = getelementptr inbounds nuw %struct.UriTextRangeStructW, ptr %36, i32 0, i32 0
  store ptr %34, ptr %37, align 8, !tbaa !92
  %38 = load ptr, ptr %8, align 8, !tbaa !61
  %39 = load ptr, ptr %10, align 8, !tbaa !89
  %40 = getelementptr inbounds nuw %struct.UriPathSegmentStructW, ptr %39, i32 0, i32 0
  %41 = getelementptr inbounds nuw %struct.UriTextRangeStructW, ptr %40, i32 0, i32 1
  store ptr %38, ptr %41, align 8, !tbaa !93
  br label %42

42:                                               ; preds = %33, %24
  %43 = load ptr, ptr %6, align 8, !tbaa !59
  %44 = getelementptr inbounds nuw %struct.UriParserStateStructW, ptr %43, i32 0, i32 0
  %45 = load ptr, ptr %44, align 8, !tbaa !63
  %46 = getelementptr inbounds nuw %struct.UriUriStructW, ptr %45, i32 0, i32 5
  %47 = load ptr, ptr %46, align 8, !tbaa !88
  %48 = icmp eq ptr %47, null
  br i1 %48, label %49, label %60

49:                                               ; preds = %42
  %50 = load ptr, ptr %10, align 8, !tbaa !89
  %51 = load ptr, ptr %6, align 8, !tbaa !59
  %52 = getelementptr inbounds nuw %struct.UriParserStateStructW, ptr %51, i32 0, i32 0
  %53 = load ptr, ptr %52, align 8, !tbaa !63
  %54 = getelementptr inbounds nuw %struct.UriUriStructW, ptr %53, i32 0, i32 5
  store ptr %50, ptr %54, align 8, !tbaa !88
  %55 = load ptr, ptr %10, align 8, !tbaa !89
  %56 = load ptr, ptr %6, align 8, !tbaa !59
  %57 = getelementptr inbounds nuw %struct.UriParserStateStructW, ptr %56, i32 0, i32 0
  %58 = load ptr, ptr %57, align 8, !tbaa !63
  %59 = getelementptr inbounds nuw %struct.UriUriStructW, ptr %58, i32 0, i32 6
  store ptr %55, ptr %59, align 8, !tbaa !95
  br label %73

60:                                               ; preds = %42
  %61 = load ptr, ptr %10, align 8, !tbaa !89
  %62 = load ptr, ptr %6, align 8, !tbaa !59
  %63 = getelementptr inbounds nuw %struct.UriParserStateStructW, ptr %62, i32 0, i32 0
  %64 = load ptr, ptr %63, align 8, !tbaa !63
  %65 = getelementptr inbounds nuw %struct.UriUriStructW, ptr %64, i32 0, i32 6
  %66 = load ptr, ptr %65, align 8, !tbaa !95
  %67 = getelementptr inbounds nuw %struct.UriPathSegmentStructW, ptr %66, i32 0, i32 1
  store ptr %61, ptr %67, align 8, !tbaa !90
  %68 = load ptr, ptr %10, align 8, !tbaa !89
  %69 = load ptr, ptr %6, align 8, !tbaa !59
  %70 = getelementptr inbounds nuw %struct.UriParserStateStructW, ptr %69, i32 0, i32 0
  %71 = load ptr, ptr %70, align 8, !tbaa !63
  %72 = getelementptr inbounds nuw %struct.UriUriStructW, ptr %71, i32 0, i32 6
  store ptr %68, ptr %72, align 8, !tbaa !95
  br label %73

73:                                               ; preds = %60, %49
  store i32 1, ptr %5, align 4
  store i32 1, ptr %11, align 4
  br label %74

74:                                               ; preds = %73, %19
  call void @llvm.lifetime.end.p0(i64 8, ptr %10) #7
  %75 = load i32, ptr %5, align 4
  ret i32 %75
}

; Function Attrs: inlinehint nounwind uwtable
define internal ptr @uriParseSegmentNzW(ptr noundef %0, ptr noundef %1, ptr noundef %2, ptr noundef %3) #4 {
  %5 = alloca ptr, align 8
  %6 = alloca ptr, align 8
  %7 = alloca ptr, align 8
  %8 = alloca ptr, align 8
  %9 = alloca ptr, align 8
  %10 = alloca ptr, align 8
  %11 = alloca i32, align 4
  store ptr %0, ptr %6, align 8, !tbaa !59
  store ptr %1, ptr %7, align 8, !tbaa !61
  store ptr %2, ptr %8, align 8, !tbaa !61
  store ptr %3, ptr %9, align 8, !tbaa !10
  call void @llvm.lifetime.start.p0(i64 8, ptr %10) #7
  %12 = load ptr, ptr %6, align 8, !tbaa !59
  %13 = load ptr, ptr %7, align 8, !tbaa !61
  %14 = load ptr, ptr %8, align 8, !tbaa !61
  %15 = load ptr, ptr %9, align 8, !tbaa !10
  %16 = call ptr @uriParsePcharW(ptr noundef %12, ptr noundef %13, ptr noundef %14, ptr noundef %15)
  store ptr %16, ptr %10, align 8, !tbaa !61
  %17 = load ptr, ptr %10, align 8, !tbaa !61
  %18 = icmp eq ptr %17, null
  br i1 %18, label %19, label %20

19:                                               ; preds = %4
  store ptr null, ptr %5, align 8
  store i32 1, ptr %11, align 4
  br label %26

20:                                               ; preds = %4
  %21 = load ptr, ptr %6, align 8, !tbaa !59
  %22 = load ptr, ptr %10, align 8, !tbaa !61
  %23 = load ptr, ptr %8, align 8, !tbaa !61
  %24 = load ptr, ptr %9, align 8, !tbaa !10
  %25 = call ptr @uriParseSegmentW(ptr noundef %21, ptr noundef %22, ptr noundef %23, ptr noundef %24)
  store ptr %25, ptr %5, align 8
  store i32 1, ptr %11, align 4
  br label %26

26:                                               ; preds = %20, %19
  call void @llvm.lifetime.end.p0(i64 8, ptr %10) #7
  %27 = load ptr, ptr %5, align 8
  ret ptr %27
}

; Function Attrs: inlinehint nounwind uwtable
define internal ptr @uriParsePathRootlessW(ptr noundef %0, ptr noundef %1, ptr noundef %2, ptr noundef %3) #4 {
  %5 = alloca ptr, align 8
  %6 = alloca ptr, align 8
  %7 = alloca ptr, align 8
  %8 = alloca ptr, align 8
  %9 = alloca ptr, align 8
  %10 = alloca ptr, align 8
  %11 = alloca i32, align 4
  store ptr %0, ptr %6, align 8, !tbaa !59
  store ptr %1, ptr %7, align 8, !tbaa !61
  store ptr %2, ptr %8, align 8, !tbaa !61
  store ptr %3, ptr %9, align 8, !tbaa !10
  call void @llvm.lifetime.start.p0(i64 8, ptr %10) #7
  %12 = load ptr, ptr %6, align 8, !tbaa !59
  %13 = load ptr, ptr %7, align 8, !tbaa !61
  %14 = load ptr, ptr %8, align 8, !tbaa !61
  %15 = load ptr, ptr %9, align 8, !tbaa !10
  %16 = call ptr @uriParseSegmentNzW(ptr noundef %12, ptr noundef %13, ptr noundef %14, ptr noundef %15)
  store ptr %16, ptr %10, align 8, !tbaa !61
  %17 = load ptr, ptr %10, align 8, !tbaa !61
  %18 = icmp eq ptr %17, null
  br i1 %18, label %19, label %20

19:                                               ; preds = %4
  store ptr null, ptr %5, align 8
  store i32 1, ptr %11, align 4
  br label %37

20:                                               ; preds = %4
  %21 = load ptr, ptr %6, align 8, !tbaa !59
  %22 = load ptr, ptr %7, align 8, !tbaa !61
  %23 = load ptr, ptr %10, align 8, !tbaa !61
  %24 = load ptr, ptr %9, align 8, !tbaa !10
  %25 = call i32 @uriPushPathSegmentW(ptr noundef %21, ptr noundef %22, ptr noundef %23, ptr noundef %24)
  %26 = icmp ne i32 %25, 0
  br i1 %26, label %30, label %27

27:                                               ; preds = %20
  %28 = load ptr, ptr %6, align 8, !tbaa !59
  %29 = load ptr, ptr %9, align 8, !tbaa !10
  call void @uriStopMallocW(ptr noundef %28, ptr noundef %29)
  store ptr null, ptr %5, align 8
  store i32 1, ptr %11, align 4
  br label %37

30:                                               ; preds = %20
  br label %31

31:                                               ; preds = %30
  %32 = load ptr, ptr %6, align 8, !tbaa !59
  %33 = load ptr, ptr %10, align 8, !tbaa !61
  %34 = load ptr, ptr %8, align 8, !tbaa !61
  %35 = load ptr, ptr %9, align 8, !tbaa !10
  %36 = call ptr @uriParseZeroMoreSlashSegsW(ptr noundef %32, ptr noundef %33, ptr noundef %34, ptr noundef %35)
  store ptr %36, ptr %5, align 8
  store i32 1, ptr %11, align 4
  br label %37

37:                                               ; preds = %31, %27, %19
  call void @llvm.lifetime.end.p0(i64 8, ptr %10) #7
  %38 = load ptr, ptr %5, align 8
  ret ptr %38
}

; Function Attrs: inlinehint nounwind uwtable
define internal ptr @uriParseHierPartW(ptr noundef %0, ptr noundef %1, ptr noundef %2, ptr noundef %3) #4 {
  %5 = alloca ptr, align 8
  %6 = alloca ptr, align 8
  %7 = alloca ptr, align 8
  %8 = alloca ptr, align 8
  %9 = alloca ptr, align 8
  store ptr %0, ptr %6, align 8, !tbaa !59
  store ptr %1, ptr %7, align 8, !tbaa !61
  store ptr %2, ptr %8, align 8, !tbaa !61
  store ptr %3, ptr %9, align 8, !tbaa !10
  %10 = load ptr, ptr %7, align 8, !tbaa !61
  %11 = load ptr, ptr %8, align 8, !tbaa !61
  %12 = icmp uge ptr %10, %11
  br i1 %12, label %13, label %15

13:                                               ; preds = %4
  %14 = load ptr, ptr %8, align 8, !tbaa !61
  store ptr %14, ptr %5, align 8
  br label %33

15:                                               ; preds = %4
  %16 = load ptr, ptr %7, align 8, !tbaa !61
  %17 = load i32, ptr %16, align 4, !tbaa !21
  switch i32 %17, label %31 [
    i32 33, label %18
    i32 36, label %18
    i32 37, label %18
    i32 38, label %18
    i32 40, label %18
    i32 41, label %18
    i32 45, label %18
    i32 42, label %18
    i32 44, label %18
    i32 46, label %18
    i32 58, label %18
    i32 59, label %18
    i32 64, label %18
    i32 39, label %18
    i32 95, label %18
    i32 126, label %18
    i32 43, label %18
    i32 61, label %18
    i32 48, label %18
    i32 49, label %18
    i32 50, label %18
    i32 51, label %18
    i32 52, label %18
    i32 53, label %18
    i32 54, label %18
    i32 55, label %18
    i32 56, label %18
    i32 57, label %18
    i32 65, label %18
    i32 66, label %18
    i32 67, label %18
    i32 68, label %18
    i32 69, label %18
    i32 70, label %18
    i32 97, label %18
    i32 98, label %18
    i32 99, label %18
    i32 100, label %18
    i32 101, label %18
    i32 102, label %18
    i32 103, label %18
    i32 71, label %18
    i32 104, label %18
    i32 72, label %18
    i32 105, label %18
    i32 73, label %18
    i32 106, label %18
    i32 74, label %18
    i32 107, label %18
    i32 75, label %18
    i32 108, label %18
    i32 76, label %18
    i32 109, label %18
    i32 77, label %18
    i32 110, label %18
    i32 78, label %18
    i32 111, label %18
    i32 79, label %18
    i32 112, label %18
    i32 80, label %18
    i32 113, label %18
    i32 81, label %18
    i32 114, label %18
    i32 82, label %18
    i32 115, label %18
    i32 83, label %18
    i32 116, label %18
    i32 84, label %18
    i32 117, label %18
    i32 85, label %18
    i32 118, label %18
    i32 86, label %18
    i32 119, label %18
    i32 87, label %18
    i32 120, label %18
    i32 88, label %18
    i32 121, label %18
    i32 89, label %18
    i32 122, label %18
    i32 90, label %18
    i32 47, label %24
  ]

18:                                               ; preds = %15, %15, %15, %15, %15, %15, %15, %15, %15, %15, %15, %15, %15, %15, %15, %15, %15, %15, %15, %15, %15, %15, %15, %15, %15, %15, %15, %15, %15, %15, %15, %15, %15, %15, %15, %15, %15, %15, %15, %15, %15, %15, %15, %15, %15, %15, %15, %15, %15, %15, %15, %15, %15, %15, %15, %15, %15, %15, %15, %15, %15, %15, %15, %15, %15, %15, %15, %15, %15, %15, %15, %15, %15, %15, %15, %15, %15, %15, %15, %15
  %19 = load ptr, ptr %6, align 8, !tbaa !59
  %20 = load ptr, ptr %7, align 8, !tbaa !61
  %21 = load ptr, ptr %8, align 8, !tbaa !61
  %22 = load ptr, ptr %9, align 8, !tbaa !10
  %23 = call ptr @uriParsePathRootlessW(ptr noundef %19, ptr noundef %20, ptr noundef %21, ptr noundef %22)
  store ptr %23, ptr %5, align 8
  br label %33

24:                                               ; preds = %15
  %25 = load ptr, ptr %6, align 8, !tbaa !59
  %26 = load ptr, ptr %7, align 8, !tbaa !61
  %27 = getelementptr inbounds i32, ptr %26, i64 1
  %28 = load ptr, ptr %8, align 8, !tbaa !61
  %29 = load ptr, ptr %9, align 8, !tbaa !10
  %30 = call ptr @uriParsePartHelperTwoW(ptr noundef %25, ptr noundef %27, ptr noundef %28, ptr noundef %29)
  store ptr %30, ptr %5, align 8
  br label %33

31:                                               ; preds = %15
  %32 = load ptr, ptr %7, align 8, !tbaa !61
  store ptr %32, ptr %5, align 8
  br label %33

33:                                               ; preds = %31, %24, %18, %13
  %34 = load ptr, ptr %5, align 8
  ret ptr %34
}