; Function Attrs: inlinehint nounwind uwtable
define internal fastcc noundef ptr @uriParseHierPartW(ptr noundef nonnull %0, ptr noundef nonnull %1, ptr noundef nonnull %2, ptr noundef %3) unnamed_addr #4 {
  %.not = icmp ult ptr %1, %2
  br i1 %.not, label %5, label %uriParsePathRootlessW.exit

5:                                                ; preds = %4
  %6 = load i32, ptr %1, align 4, !tbaa !55
  switch i32 %6, label %uriParsePathRootlessW.exit [
    i32 33, label %7
    i32 36, label %7
    i32 37, label %7
    i32 38, label %7
    i32 40, label %7
    i32 41, label %7
    i32 45, label %7
    i32 42, label %7
    i32 44, label %7
    i32 46, label %7
    i32 58, label %7
    i32 59, label %7
    i32 64, label %7
    i32 39, label %7
    i32 95, label %7
    i32 126, label %7
    i32 43, label %7
    i32 61, label %7
    i32 48, label %7
    i32 49, label %7
    i32 50, label %7
    i32 51, label %7
    i32 52, label %7
    i32 53, label %7
    i32 54, label %7
    i32 55, label %7
    i32 56, label %7
    i32 57, label %7
    i32 65, label %7
    i32 66, label %7
    i32 67, label %7
    i32 68, label %7
    i32 69, label %7
    i32 70, label %7
    i32 97, label %7
    i32 98, label %7
    i32 99, label %7
    i32 100, label %7
    i32 101, label %7
    i32 102, label %7
    i32 103, label %7
    i32 71, label %7
    i32 104, label %7
    i32 72, label %7
    i32 105, label %7
    i32 73, label %7
    i32 106, label %7
    i32 74, label %7
    i32 107, label %7
    i32 75, label %7
    i32 108, label %7
    i32 76, label %7
    i32 109, label %7
    i32 77, label %7
    i32 110, label %7
    i32 78, label %7
    i32 111, label %7
    i32 79, label %7
    i32 112, label %7
    i32 80, label %7
    i32 113, label %7
    i32 81, label %7
    i32 114, label %7
    i32 82, label %7
    i32 115, label %7
    i32 83, label %7
    i32 116, label %7
    i32 84, label %7
    i32 117, label %7
    i32 85, label %7
    i32 118, label %7
    i32 86, label %7
    i32 119, label %7
    i32 87, label %7
    i32 120, label %7
    i32 88, label %7
    i32 121, label %7
    i32 89, label %7
    i32 122, label %7
    i32 90, label %7
    i32 47, label %58
  ]

7:                                                ; preds = %5, %5, %5, %5, %5, %5, %5, %5, %5, %5, %5, %5, %5, %5, %5, %5, %5, %5, %5, %5, %5, %5, %5, %5, %5, %5, %5, %5, %5, %5, %5, %5, %5, %5, %5, %5, %5, %5, %5, %5, %5, %5, %5, %5, %5, %5, %5, %5, %5, %5, %5, %5, %5, %5, %5, %5, %5, %5, %5, %5, %5, %5, %5, %5, %5, %5, %5, %5, %5, %5, %5, %5, %5, %5, %5, %5, %5, %5, %5, %5
  %8 = tail call fastcc ptr @uriParsePcharW(ptr noundef nonnull %0, ptr noundef nonnull %1, ptr noundef nonnull %2, ptr noundef %3)
  %9 = icmp eq ptr %8, null
  br i1 %9, label %uriParsePathRootlessW.exit, label %uriParseSegmentNzW.exit.i

uriParseSegmentNzW.exit.i:                        ; preds = %7
  %10 = tail call fastcc ptr @uriParseSegmentW(ptr noundef nonnull %0, ptr noundef %8, ptr noundef nonnull %2, ptr noundef %3)
  %11 = icmp eq ptr %10, null
  br i1 %11, label %uriParsePathRootlessW.exit, label %12

12:                                               ; preds = %uriParseSegmentNzW.exit.i
  %13 = getelementptr inbounds nuw i8, ptr %3, i64 8
  %14 = load ptr, ptr %13, align 8, !tbaa !19
  %15 = tail call ptr %14(ptr noundef %3, i64 noundef 1, i64 noundef 32) #7
  %16 = icmp eq ptr %15, null
  br i1 %16, label %uriParseZeroMoreSlashSegsW.exit.sink.split.i, label %17

17:                                               ; preds = %12
  %18 = icmp eq ptr %1, %10
  %19 = load ptr, ptr @uriSafeToPointToW, align 8
  %spec.select.i.i = select i1 %18, ptr %19, ptr %1
  %spec.select24.i.i = select i1 %18, ptr %19, ptr %10
  store ptr %spec.select.i.i, ptr %15, align 8, !tbaa !61
  %20 = getelementptr inbounds nuw i8, ptr %15, i64 8
  store ptr %spec.select24.i.i, ptr %20, align 8, !tbaa !63
  %21 = load ptr, ptr %0, align 8, !tbaa !51
  %22 = getelementptr inbounds nuw i8, ptr %21, i64 96
  %23 = load ptr, ptr %22, align 8, !tbaa !64
  %24 = icmp eq ptr %23, null
  br i1 %24, label %25, label %27

25:                                               ; preds = %17
  store ptr %15, ptr %22, align 8, !tbaa !64
  %26 = getelementptr inbounds nuw i8, ptr %21, i64 104
  store ptr %15, ptr %26, align 8, !tbaa !65
  br label %31

27:                                               ; preds = %17
  %28 = getelementptr inbounds nuw i8, ptr %21, i64 104
  %29 = load ptr, ptr %28, align 8, !tbaa !65
  %30 = getelementptr inbounds nuw i8, ptr %29, i64 16
  store ptr %15, ptr %30, align 8, !tbaa !66
  store ptr %15, ptr %28, align 8, !tbaa !65
  br label %31

31:                                               ; preds = %27, %25
  %.not31.i.i = icmp ult ptr %10, %2
  br i1 %.not31.i.i, label %.lr.ph.i.i, label %uriParsePathRootlessW.exit

.lr.ph.i.i:                                       ; preds = %31, %tailrecurse.i.i
  %.tr2832.i.i = phi ptr [ %35, %tailrecurse.i.i ], [ %10, %31 ]
  %32 = load i32, ptr %.tr2832.i.i, align 4, !tbaa !55
  %cond.i.i = icmp eq i32 %32, 47
  br i1 %cond.i.i, label %33, label %uriParsePathRootlessW.exit

33:                                               ; preds = %.lr.ph.i.i
  %34 = getelementptr inbounds nuw i8, ptr %.tr2832.i.i, i64 4
  %35 = tail call fastcc ptr @uriParseSegmentW(ptr noundef nonnull %0, ptr noundef %34, ptr noundef nonnull %2, ptr noundef nonnull %3)
  %36 = icmp eq ptr %35, null
  br i1 %36, label %uriParsePathRootlessW.exit, label %37

37:                                               ; preds = %33
  %38 = load ptr, ptr %13, align 8, !tbaa !19
  %39 = tail call ptr %38(ptr noundef nonnull %3, i64 noundef 1, i64 noundef 32) #7
  %40 = icmp eq ptr %39, null
  br i1 %40, label %uriParseZeroMoreSlashSegsW.exit.sink.split.i, label %41

41:                                               ; preds = %37
  %42 = icmp eq ptr %34, %35
  %spec.select.i.i.i = select i1 %42, ptr %19, ptr %34
  %spec.select24.i.i.i = select i1 %42, ptr %19, ptr %35
  store ptr %spec.select.i.i.i, ptr %39, align 8, !tbaa !61
  %43 = getelementptr inbounds nuw i8, ptr %39, i64 8
  store ptr %spec.select24.i.i.i, ptr %43, align 8, !tbaa !63
  %44 = load ptr, ptr %0, align 8, !tbaa !51
  %45 = getelementptr inbounds nuw i8, ptr %44, i64 96
  %46 = load ptr, ptr %45, align 8, !tbaa !64
  %47 = icmp eq ptr %46, null
  br i1 %47, label %48, label %50

48:                                               ; preds = %41
  store ptr %39, ptr %45, align 8, !tbaa !64
  %49 = getelementptr inbounds nuw i8, ptr %44, i64 104
  store ptr %39, ptr %49, align 8, !tbaa !65
  br label %tailrecurse.i.i

50:                                               ; preds = %41
  %51 = getelementptr inbounds nuw i8, ptr %44, i64 104
  %52 = load ptr, ptr %51, align 8, !tbaa !65
  %53 = getelementptr inbounds nuw i8, ptr %52, i64 16
  store ptr %39, ptr %53, align 8, !tbaa !66
  store ptr %39, ptr %51, align 8, !tbaa !65
  br label %tailrecurse.i.i

tailrecurse.i.i:                                  ; preds = %50, %48
  %.not.i.i = icmp ult ptr %35, %2
  br i1 %.not.i.i, label %.lr.ph.i.i, label %uriParsePathRootlessW.exit

uriParseZeroMoreSlashSegsW.exit.sink.split.i:     ; preds = %37, %12
  %54 = load ptr, ptr %0, align 8, !tbaa !51
  %55 = tail call i32 @uriFreeUriMembersMmW(ptr noundef %54, ptr noundef nonnull %3)
  %56 = getelementptr inbounds nuw i8, ptr %0, i64 16
  store ptr null, ptr %56, align 8, !tbaa !68
  %57 = getelementptr inbounds nuw i8, ptr %0, i64 8
  store i32 3, ptr %57, align 8, !tbaa !69
  br label %uriParsePathRootlessW.exit

58:                                               ; preds = %5
  %59 = getelementptr inbounds nuw i8, ptr %1, i64 4
  %60 = tail call fastcc ptr @uriParsePartHelperTwoW(ptr noundef %0, ptr noundef %59, ptr noundef %2, ptr noundef %3)
  br label %uriParsePathRootlessW.exit

uriParsePathRootlessW.exit:                       ; preds = %tailrecurse.i.i, %33, %.lr.ph.i.i, %uriParseZeroMoreSlashSegsW.exit.sink.split.i, %31, %uriParseSegmentNzW.exit.i, %7, %5, %4, %58
  %.0 = phi ptr [ %60, %58 ], [ %2, %4 ], [ %1, %5 ], [ null, %uriParseSegmentNzW.exit.i ], [ %2, %31 ], [ null, %7 ], [ null, %uriParseZeroMoreSlashSegsW.exit.sink.split.i ], [ %2, %tailrecurse.i.i ], [ null, %33 ], [ %.tr2832.i.i, %.lr.ph.i.i ]
  ret ptr %.0
}